target datalayout = "e-m:e-p270:32:32-p271:32:32-p272:64:64-i64:64-i128:128-f80:128-n8:16:32:64-S128"
target triple = "x86_64-pc-linux-gnu"

%struct.GCtab = type { %struct.GCRef, i8, i8, i8, i8, %struct.MRef, %struct.GCRef, %struct.GCRef, %struct.MRef, i32, i32, %struct.MRef }
%struct.GCRef = type { i64 }
%struct.MRef = type { i64 }
%struct.GCstr = type { %struct.GCRef, i8, i8, i8, i8, i32, i32, i32 }
%struct.Node = type { %union.TValue, %union.TValue, %struct.MRef }
%union.TValue = type { i64 }
%struct.anon.0 = type { i32, i32 }

; Function Attrs: alwaysinline nounwind uwtable
define internal i32 @hashrot(i32 noundef %0, i32 noundef %1) #2 {
  %3 = alloca i32, align 4
  %4 = alloca i32, align 4
  store i32 %0, ptr %3, align 4, !tbaa !9
  store i32 %1, ptr %4, align 4, !tbaa !9
  %5 = load i32, ptr %4, align 4, !tbaa !9
  %6 = load i32, ptr %3, align 4, !tbaa !9
  %7 = xor i32 %6, %5
  store i32 %7, ptr %3, align 4, !tbaa !9
  %8 = load i32, ptr %4, align 4, !tbaa !9
  %9 = shl i32 %8, 14
  %10 = load i32, ptr %4, align 4, !tbaa !9
  %11 = lshr i32 %10, 18
  %12 = or i32 %9, %11
  store i32 %12, ptr %4, align 4, !tbaa !9
  %13 = load i32, ptr %4, align 4, !tbaa !9
  %14 = load i32, ptr %3, align 4, !tbaa !9
  %15 = sub i32 %14, %13
  store i32 %15, ptr %3, align 4, !tbaa !9
  %16 = load i32, ptr %4, align 4, !tbaa !9
  %17 = shl i32 %16, 5
  %18 = load i32, ptr %4, align 4, !tbaa !9
  %19 = lshr i32 %18, 27
  %20 = or i32 %17, %19
  store i32 %20, ptr %4, align 4, !tbaa !9
  %21 = load i32, ptr %3, align 4, !tbaa !9
  %22 = load i32, ptr %4, align 4, !tbaa !9
  %23 = xor i32 %22, %21
  store i32 %23, ptr %4, align 4, !tbaa !9
  %24 = load i32, ptr %3, align 4, !tbaa !9
  %25 = shl i32 %24, 13
  %26 = load i32, ptr %3, align 4, !tbaa !9
  %27 = lshr i32 %26, 19
  %28 = or i32 %25, %27
  %29 = load i32, ptr %4, align 4, !tbaa !9
  %30 = sub i32 %29, %28
  store i32 %30, ptr %4, align 4, !tbaa !9
  %31 = load i32, ptr %4, align 4, !tbaa !9
  ret i32 %31
}

; Function Attrs: alwaysinline nounwind uwtable
define internal ptr @hashmask(ptr noundef %0, i32 noundef %1) #2 {
  %3 = alloca ptr, align 8
  %4 = alloca i32, align 4
  %5 = alloca ptr, align 8
  store ptr %0, ptr %3, align 8, !tbaa !11
  store i32 %1, ptr %4, align 4, !tbaa !9
  call void @llvm.lifetime.start.p0(i64 8, ptr %5) #9
  %6 = load ptr, ptr %3, align 8, !tbaa !11
  %7 = getelementptr inbounds nuw %struct.GCtab, ptr %6, i32 0, i32 8
  %8 = getelementptr inbounds nuw %struct.MRef, ptr %7, i32 0, i32 0
  %9 = load i64, ptr %8, align 8, !tbaa !29
  %10 = inttoptr i64 %9 to ptr
  store ptr %10, ptr %5, align 8, !tbaa !27
  %11 = load ptr, ptr %5, align 8, !tbaa !27
  %12 = load i32, ptr %4, align 4, !tbaa !9
  %13 = load ptr, ptr %3, align 8, !tbaa !11
  %14 = getelementptr inbounds nuw %struct.GCtab, ptr %13, i32 0, i32 10
  %15 = load i32, ptr %14, align 4, !tbaa !13
  %16 = and i32 %12, %15
  %17 = zext i32 %16 to i64
  %18 = getelementptr inbounds nuw %struct.Node, ptr %11, i64 %17
  call void @llvm.lifetime.end.p0(i64 8, ptr %5) #9
  ret ptr %18
}

; Function Attrs: nounwind uwtable
define internal ptr @hashkey(ptr noundef %0, ptr noundef %1) #0 {
  %3 = alloca ptr, align 8
  %4 = alloca ptr, align 8
  %5 = alloca ptr, align 8
  store ptr %0, ptr %4, align 8, !tbaa !11
  store ptr %1, ptr %5, align 8, !tbaa !31
  %6 = load ptr, ptr %5, align 8, !tbaa !31
  %7 = load i64, ptr %6, align 8, !tbaa !32
  %8 = ashr i64 %7, 47
  %9 = trunc i64 %8 to i32
  %10 = icmp eq i32 %9, -5
  br i1 %10, label %11, label %21

11:                                               ; preds = %2
  %12 = load ptr, ptr %4, align 8, !tbaa !11
  %13 = load ptr, ptr %5, align 8, !tbaa !31
  %14 = getelementptr inbounds nuw %struct.GCRef, ptr %13, i32 0, i32 0
  %15 = load i64, ptr %14, align 8, !tbaa !32
  %16 = and i64 %15, 140737488355327
  %17 = inttoptr i64 %16 to ptr
  %18 = getelementptr inbounds nuw %struct.GCstr, ptr %17, i32 0, i32 5
  %19 = load i32, ptr %18, align 4, !tbaa !32
  %20 = call ptr @hashmask(ptr noundef %12, i32 noundef %19)
  store ptr %20, ptr %3, align 8
  br label %71

21:                                               ; preds = %2
  %22 = load ptr, ptr %5, align 8, !tbaa !31
  %23 = load i64, ptr %22, align 8, !tbaa !32
  %24 = ashr i64 %23, 47
  %25 = trunc i64 %24 to i32
  %26 = icmp ult i32 %25, -14
  br i1 %26, label %27, label %38

27:                                               ; preds = %21
  %28 = load ptr, ptr %4, align 8, !tbaa !11
  %29 = load ptr, ptr %5, align 8, !tbaa !31
  %30 = getelementptr inbounds nuw %struct.anon.0, ptr %29, i32 0, i32 0
  %31 = load i32, ptr %30, align 8, !tbaa !32
  %32 = load ptr, ptr %5, align 8, !tbaa !31
  %33 = getelementptr inbounds nuw %struct.anon.0, ptr %32, i32 0, i32 1
  %34 = load i32, ptr %33, align 4, !tbaa !32
  %35 = shl i32 %34, 1
  %36 = call i32 @hashrot(i32 noundef %31, i32 noundef %35)
  %37 = call ptr @hashmask(ptr noundef %28, i32 noundef %36)
  store ptr %37, ptr %3, align 8
  br label %71

38:                                               ; preds = %21
  %39 = load ptr, ptr %5, align 8, !tbaa !31
  %40 = load i64, ptr %39, align 8, !tbaa !32
  %41 = ashr i64 %40, 47
  %42 = trunc i64 %41 to i32
  %43 = icmp eq i32 %42, -2
  br i1 %43, label %50, label %44

44:                                               ; preds = %38
  %45 = load ptr, ptr %5, align 8, !tbaa !31
  %46 = load i64, ptr %45, align 8, !tbaa !32
  %47 = ashr i64 %46, 47
  %48 = trunc i64 %47 to i32
  %49 = icmp eq i32 %48, -3
  br i1 %49, label %50, label %58

50:                                               ; preds = %44, %38
  %51 = load ptr, ptr %4, align 8, !tbaa !11
  %52 = load ptr, ptr %5, align 8, !tbaa !31
  %53 = load i64, ptr %52, align 8, !tbaa !32
  %54 = ashr i64 %53, 47
  %55 = trunc i64 %54 to i32
  %56 = sub i32 -2, %55
  %57 = call ptr @hashmask(ptr noundef %51, i32 noundef %56)
  store ptr %57, ptr %3, align 8
  br label %71

58:                                               ; preds = %44
  %59 = load ptr, ptr %4, align 8, !tbaa !11
  %60 = load ptr, ptr %5, align 8, !tbaa !31
  %61 = getelementptr inbounds nuw %struct.GCRef, ptr %60, i32 0, i32 0
  %62 = load i64, ptr %61, align 8, !tbaa !32
  %63 = trunc i64 %62 to i32
  %64 = load ptr, ptr %5, align 8, !tbaa !31
  %65 = getelementptr inbounds nuw %struct.GCRef, ptr %64, i32 0, i32 0
  %66 = load i64, ptr %65, align 8, !tbaa !32
  %67 = lshr i64 %66, 32
  %68 = trunc i64 %67 to i32
  %69 = call i32 @hashrot(i32 noundef %63, i32 noundef %68)
  %70 = call ptr @hashmask(ptr noundef %59, i32 noundef %69)
  store ptr %70, ptr %3, align 8
  br label %71

71:                                               ; preds = %58, %50, %27, %11
  %72 = load ptr, ptr %3, align 8
  ret ptr %72
}

; Function Attrs: nounwind uwtable
define hidden i32 @lj_tab_keyindex(ptr noundef %0, ptr noundef %1) #0 {
  %3 = alloca i32, align 4
  %4 = alloca ptr, align 8
  %5 = alloca ptr, align 8
  %6 = alloca double, align 8
  %7 = alloca i32, align 4
  %8 = alloca i32, align 4
  %9 = alloca ptr, align 8
  store ptr %0, ptr %4, align 8, !tbaa !11
  store ptr %1, ptr %5, align 8, !tbaa !31
  %10 = load ptr, ptr %5, align 8, !tbaa !31
  %11 = load i64, ptr %10, align 8, !tbaa !32
  %12 = ashr i64 %11, 47
  %13 = trunc i64 %12 to i32
  %14 = icmp ult i32 %13, -14
  br i1 %14, label %15, label %37

15:                                               ; preds = %2
  call void @llvm.lifetime.start.p0(i64 8, ptr %6) #9
  %16 = load ptr, ptr %5, align 8, !tbaa !31
  %17 = load double, ptr %16, align 8, !tbaa !32
  store double %17, ptr %6, align 8, !tbaa !62
  call void @llvm.lifetime.start.p0(i64 4, ptr %7) #9
  %18 = load double, ptr %6, align 8, !tbaa !62
  %19 = fptosi double %18 to i32
  store i32 %19, ptr %7, align 4, !tbaa !9
  %20 = load i32, ptr %7, align 4, !tbaa !9
  %21 = load ptr, ptr %4, align 8, !tbaa !11
  %22 = getelementptr inbounds nuw %struct.GCtab, ptr %21, i32 0, i32 9
  %23 = load i32, ptr %22, align 8, !tbaa !23
  %24 = icmp ult i32 %20, %23
  br i1 %24, label %25, label %33

25:                                               ; preds = %15
  %26 = load double, ptr %6, align 8, !tbaa !62
  %27 = load i32, ptr %7, align 4, !tbaa !9
  %28 = sitofp i32 %27 to double
  %29 = fcmp oeq double %26, %28
  br i1 %29, label %30, label %33

30:                                               ; preds = %25
  %31 = load i32, ptr %7, align 4, !tbaa !9
  %32 = add i32 %31, 1
  store i32 %32, ptr %3, align 4
  store i32 1, ptr %8, align 4
  br label %34

33:                                               ; preds = %25, %15
  store i32 0, ptr %8, align 4
  br label %34

34:                                               ; preds = %33, %30
  call void @llvm.lifetime.end.p0(i64 4, ptr %7) #9
  call void @llvm.lifetime.end.p0(i64 8, ptr %6) #9
  %35 = load i32, ptr %8, align 4
  switch i32 %35, label %88 [
    i32 0, label %36
  ]

36:                                               ; preds = %34
  br label %37

37:                                               ; preds = %36, %2
  %38 = load ptr, ptr %5, align 8, !tbaa !31
  %39 = load i64, ptr %38, align 8, !tbaa !32
  %40 = icmp eq i64 %39, -1
  br i1 %40, label %87, label %41

41:                                               ; preds = %37
  call void @llvm.lifetime.start.p0(i64 8, ptr %9) #9
  %42 = load ptr, ptr %4, align 8, !tbaa !11
  %43 = load ptr, ptr %5, align 8, !tbaa !31
  %44 = call ptr @hashkey(ptr noundef %42, ptr noundef %43)
  store ptr %44, ptr %9, align 8, !tbaa !27
  br label %45

45:                                               ; preds = %69, %41
  %46 = load ptr, ptr %9, align 8, !tbaa !27
  %47 = getelementptr inbounds nuw %struct.Node, ptr %46, i32 0, i32 1
  %48 = load ptr, ptr %5, align 8, !tbaa !31
  %49 = call i32 @lj_obj_equal(ptr noundef %47, ptr noundef %48)
  %50 = icmp ne i32 %49, 0
  br i1 %50, label %51, label %68

51:                                               ; preds = %45
  %52 = load ptr, ptr %4, align 8, !tbaa !11
  %53 = getelementptr inbounds nuw %struct.GCtab, ptr %52, i32 0, i32 9
  %54 = load i32, ptr %53, align 8, !tbaa !23
  %55 = load ptr, ptr %9, align 8, !tbaa !27
  %56 = getelementptr inbounds %struct.Node, ptr %55, i64 1
  %57 = load ptr, ptr %4, align 8, !tbaa !11
  %58 = getelementptr inbounds nuw %struct.GCtab, ptr %57, i32 0, i32 8
  %59 = getelementptr inbounds nuw %struct.MRef, ptr %58, i32 0, i32 0
  %60 = load i64, ptr %59, align 8, !tbaa !29
  %61 = inttoptr i64 %60 to ptr
  %62 = ptrtoint ptr %56 to i64
  %63 = ptrtoint ptr %61 to i64
  %64 = sub i64 %62, %63
  %65 = sdiv exact i64 %64, 24
  %66 = trunc i64 %65 to i32
  %67 = add i32 %54, %66
  store i32 %67, ptr %3, align 4
  store i32 1, ptr %8, align 4
  br label %86

68:                                               ; preds = %45
  br label %69

69:                                               ; preds = %68
  %70 = load ptr, ptr %9, align 8, !tbaa !27
  %71 = getelementptr inbounds nuw %struct.Node, ptr %70, i32 0, i32 2
  %72 = getelementptr inbounds nuw %struct.MRef, ptr %71, i32 0, i32 0
  %73 = load i64, ptr %72, align 8, !tbaa !35
  %74 = inttoptr i64 %73 to ptr
  store ptr %74, ptr %9, align 8, !tbaa !27
  %75 = icmp ne ptr %74, null
  br i1 %75, label %45, label %76, !llvm.loop !82

76:                                               ; preds = %69
  %77 = load ptr, ptr %5, align 8, !tbaa !31
  %78 = getelementptr inbounds nuw %struct.anon.0, ptr %77, i32 0, i32 1
  %79 = load i32, ptr %78, align 4, !tbaa !32
  %80 = icmp eq i32 %79, -98305
  br i1 %80, label %81, label %85

81:                                               ; preds = %76
  %82 = load ptr, ptr %5, align 8, !tbaa !31
  %83 = getelementptr inbounds nuw %struct.anon.0, ptr %82, i32 0, i32 0
  %84 = load i32, ptr %83, align 8, !tbaa !32
  store i32 %84, ptr %3, align 4
  store i32 1, ptr %8, align 4
  br label %86

85:                                               ; preds = %76
  store i32 -1, ptr %3, align 4
  store i32 1, ptr %8, align 4
  br label %86

86:                                               ; preds = %85, %81, %51
  call void @llvm.lifetime.end.p0(i64 8, ptr %9) #9
  br label %88

87:                                               ; preds = %37
  store i32 0, ptr %3, align 4
  store i32 1, ptr %8, align 4
  br label %88

88:                                               ; preds = %87, %86, %34
  %89 = load i32, ptr %3, align 4
  ret i32 %89
}