; Function Attrs: nounwind uwtable
define hidden i32 @lj_tab_keyindex(ptr noundef readonly captures(none) %0, ptr noundef %1) local_unnamed_addr #0 {
  %3 = load i64, ptr %1, align 8
  %4 = icmp ult i64 %3, -1970324836974592
  br i1 %4, label %5, label %14

5:                                                ; preds = %2
  %6 = bitcast i64 %3 to double
  %7 = fptosi double %6 to i32
  %8 = getelementptr inbounds nuw i8, ptr %0, i64 48
  %9 = load i32, ptr %8, align 8, !tbaa !4
  %10 = icmp ule i32 %9, %7
  %11 = sitofp i32 %7 to double
  %12 = fcmp une double %6, %11
  %or.cond.not = or i1 %10, %12
  %13 = add nuw i32 %7, 1
  br i1 %or.cond.not, label %.thread, label %78

14:                                               ; preds = %2
  %15 = icmp eq i64 %3, -1
  br i1 %15, label %78, label %.thread

.thread:                                          ; preds = %5, %14
  %16 = ashr i64 %3, 47
  %17 = icmp eq i64 %16, -5
  %18 = trunc i64 %3 to i32
  %19 = lshr i64 %3, 32
  %20 = trunc nuw i64 %19 to i32
  br i1 %17, label %21, label %26

21:                                               ; preds = %.thread
  %22 = and i64 %3, 140737488355327
  %23 = inttoptr i64 %22 to ptr
  %24 = getelementptr inbounds nuw i8, ptr %23, i64 12
  %25 = load i32, ptr %24, align 4, !tbaa !13
  br label %hashkey.exit

26:                                               ; preds = %.thread
  %27 = icmp ult i64 %16, -14
  br i1 %27, label %28, label %37

28:                                               ; preds = %26
  %29 = shl i32 %20, 1
  %30 = xor i32 %29, %18
  %31 = tail call i32 @llvm.fshl.i32(i32 %29, i32 %29, i32 14)
  %32 = sub i32 %30, %31
  %33 = tail call i32 @llvm.fshl.i32(i32 %31, i32 %31, i32 5)
  %34 = xor i32 %33, %32
  %35 = tail call i32 @llvm.fshl.i32(i32 %32, i32 %32, i32 13)
  %36 = sub i32 %34, %35
  br label %hashkey.exit

37:                                               ; preds = %26
  %.off.i = add nsw i64 %16, 3
  %switch.i = icmp ult i64 %.off.i, 2
  br i1 %switch.i, label %38, label %41

38:                                               ; preds = %37
  %39 = trunc nsw i64 %16 to i32
  %40 = sub nuw nsw i32 -2, %39
  br label %hashkey.exit

41:                                               ; preds = %37
  %42 = xor i64 %19, %3
  %43 = trunc i64 %42 to i32
  %44 = tail call i32 @llvm.fshl.i32(i32 %20, i32 %20, i32 14)
  %45 = sub i32 %43, %44
  %46 = tail call i32 @llvm.fshl.i32(i32 %44, i32 %44, i32 5)
  %47 = xor i32 %46, %45
  %48 = tail call i32 @llvm.fshl.i32(i32 %45, i32 %45, i32 13)
  %49 = sub i32 %47, %48
  br label %hashkey.exit

hashkey.exit:                                     ; preds = %21, %28, %38, %41
  %.sink31 = phi i32 [ %25, %21 ], [ %36, %28 ], [ %40, %38 ], [ %49, %41 ]
  %50 = getelementptr inbounds nuw i8, ptr %0, i64 52
  %51 = load i32, ptr %50, align 4, !tbaa !14
  %52 = and i32 %51, %.sink31
  %.sink.in.in.i = getelementptr inbounds nuw i8, ptr %0, i64 40
  %.sink.in.i = load i64, ptr %.sink.in.in.i, align 8, !tbaa !15
  %.sink.i = inttoptr i64 %.sink.in.i to ptr
  %53 = zext i32 %52 to i64
  %54 = getelementptr inbounds nuw %struct.Node, ptr %.sink.i, i64 %53
  br label %55

55:                                               ; preds = %68, %hashkey.exit
  %.0 = phi ptr [ %54, %hashkey.exit ], [ %71, %68 ]
  %56 = getelementptr inbounds nuw i8, ptr %.0, i64 8
  %57 = tail call i32 @lj_obj_equal(ptr noundef nonnull %56, ptr noundef nonnull %1) #11
  %.not = icmp eq i32 %57, 0
  br i1 %.not, label %68, label %58

58:                                               ; preds = %55
  %59 = getelementptr inbounds nuw i8, ptr %0, i64 48
  %60 = load i32, ptr %59, align 8, !tbaa !4
  %61 = getelementptr inbounds nuw i8, ptr %.0, i64 24
  %62 = load i64, ptr %.sink.in.in.i, align 8, !tbaa !15
  %63 = ptrtoint ptr %61 to i64
  %64 = sub i64 %63, %62
  %65 = sdiv exact i64 %64, 24
  %66 = trunc i64 %65 to i32
  %67 = add i32 %60, %66
  br label %78

68:                                               ; preds = %55
  %69 = getelementptr inbounds nuw i8, ptr %.0, i64 16
  %70 = load i64, ptr %69, align 8, !tbaa !16
  %71 = inttoptr i64 %70 to ptr
  %.not24 = icmp eq i64 %70, 0
  br i1 %.not24, label %72, label %55, !llvm.loop !66

72:                                               ; preds = %68
  %73 = getelementptr inbounds nuw i8, ptr %1, i64 4
  %74 = load i32, ptr %73, align 4, !tbaa !13
  %75 = icmp eq i32 %74, -98305
  br i1 %75, label %76, label %78

76:                                               ; preds = %72
  %77 = load i32, ptr %1, align 8, !tbaa !13
  br label %78

78:                                               ; preds = %14, %58, %76, %72, %5
  %.1 = phi i32 [ %13, %5 ], [ %67, %58 ], [ %77, %76 ], [ -1, %72 ], [ 0, %14 ]
  ret i32 %.1
}